(dp1
I100
(dp2
I4000
V0.0
p3
sI2500
V0.0
p4
sI1000
V0.0
p5
sI5500
V0.0
p6
sI3500
V0.0
p7
sI2000
V0.0
p8
sI5000
V0.0
p9
sI4500
V0.0
p10
sI3000
V0.0
p11
sI1500
V0.0
p12
ssI70
(dp13
I4000
V0.0
p14
sI2500
V0.0
p15
sI1000
V0.0
p16
sI5500
V0.0
p17
sI3500
V0.0
p18
sI2000
V0.0
p19
sI5000
V0.0
p20
sI4500
V0.0
p21
sI3000
V0.0
p22
sI1500
V0.0
p23
ssI80
(dp24
I4000
V0.0
p25
sI2500
V0.0
p26
sI1000
V0.0
p27
sI5500
V0.0
p28
sI3500
V0.0
p29
sI2000
V0.0
p30
sI5000
V0.0
p31
sI4500
V0.0
p32
sI3000
V0.0
p33
sI1500
V0.0
p34
ssI50
(dp35
I4000
V0.0
p36
sI2500
V0.0
p37
sI1000
V32
p38
sI5500
V0.0
p39
sI3500
V0.0
p40
sI2000
V0.0
p41
sI5000
V0.0
p42
sI4500
V0.0
p43
sI3000
V0.0
p44
sI1500
V0.0
p45
ssI90
(dp46
I4000
V0.0
p47
sI2500
V0.0
p48
sI1000
V0.0
p49
sI5500
V0.0
p50
sI3500
V0.0
p51
sI2000
V0.0
p52
sI5000
V0.0
p53
sI4500
V0.0
p54
sI3000
V0.0
p55
sI1500
V0.0
p56
ssI60
(dp57
I4000
V0.0
p58
sI2500
V0.0
p59
sI1000
V0.0
p60
sI5500
V0.0
p61
sI3500
V0.0
p62
sI2000
V0.0
p63
sI5000
V0.0
p64
sI4500
V0.0
p65
sI3000
V0.0
p66
sI1500
V0.0
p67
ss.